; Function Attrs: mustprogress nounwind uwtable
define internal void @_ZN4leanL25basesharedmutex_finalizerEPv(ptr noundef %0) #5 {
  %2 = icmp eq ptr %0, null
  br i1 %2, label %4, label %3

3:                                                ; preds = %1
  tail call void @_ZdlPvm(ptr noundef nonnull %0, i64 noundef 56) #13
  br label %4

4:                                                ; preds = %3, %1
  ret void
}